target datalayout = "e-m:e-p270:32:32-p271:32:32-p272:64:64-i64:64-i128:128-f80:128-n8:16:32:64-S128"
target triple = "x86_64-pc-linux-gnu"

@.str.14 = private unnamed_addr constant [29 x i8] c"../openssl/test/cmsapitest.c\00", align 1
@derin = internal global ptr null, align 8
@.str.19 = private unnamed_addr constant [2 x i8] c"r\00", align 1
@.str.36 = private unnamed_addr constant [2 x i8] c"0\00", align 1
@.str.43 = private unnamed_addr constant [17 x i8] c"ERR_peek_error()\00", align 1
@.str.48 = private unnamed_addr constant [29 x i8] c"cms = d2i_CMS_bio(bio, NULL)\00", align 1
@.str.51 = private unnamed_addr constant [31 x i8] c"bio = BIO_new_file(derin, \22r\22)\00", align 1
@.str.52 = private unnamed_addr constant [30 x i8] c"buf = read_all(bio, &buf_len)\00", align 1
@.str.53 = private unnamed_addr constant [47 x i8] c"cms = d2i_CMS_ContentInfo(NULL, &tmp, buf_len)\00", align 1

; Function Attrs: nounwind uwtable
define internal ptr @read_all(ptr noundef %0, ptr noundef %1) #0 {
  %3 = alloca ptr, align 8
  %4 = alloca ptr, align 8
  %5 = alloca ptr, align 8
  %6 = alloca i32, align 4
  %7 = alloca ptr, align 8
  %8 = alloca ptr, align 8
  %9 = alloca i32, align 4
  %10 = alloca i32, align 4
  store ptr %0, ptr %4, align 8, !tbaa !9
  store ptr %1, ptr %5, align 8, !tbaa !26
  call void @llvm.lifetime.start.p0(i64 4, ptr %6) #5
  store i32 256, ptr %6, align 4, !tbaa !15
  call void @llvm.lifetime.start.p0(i64 8, ptr %7) #5
  store ptr null, ptr %7, align 8, !tbaa !4
  call void @llvm.lifetime.start.p0(i64 8, ptr %8) #5
  store ptr null, ptr %8, align 8, !tbaa !4
  call void @llvm.lifetime.start.p0(i64 4, ptr %9) #5
  %11 = load ptr, ptr %5, align 8, !tbaa !26
  store i64 0, ptr %11, align 8, !tbaa !20
  br label %12

12:                                               ; preds = %50, %2
  %13 = load ptr, ptr %7, align 8, !tbaa !4
  %14 = load ptr, ptr %5, align 8, !tbaa !26
  %15 = load i64, ptr %14, align 8, !tbaa !20
  %16 = add nsw i64 %15, 256
  %17 = call ptr @CRYPTO_realloc(ptr noundef %13, i64 noundef %16, ptr noundef @.str.14, i32 noundef 327)
  store ptr %17, ptr %8, align 8, !tbaa !4
  %18 = load ptr, ptr %8, align 8, !tbaa !4
  %19 = icmp eq ptr %18, null
  br i1 %19, label %20, label %21

20:                                               ; preds = %12
  br label %51

21:                                               ; preds = %12
  %22 = load ptr, ptr %8, align 8, !tbaa !4
  store ptr %22, ptr %7, align 8, !tbaa !4
  %23 = load ptr, ptr %4, align 8, !tbaa !9
  %24 = load ptr, ptr %7, align 8, !tbaa !4
  %25 = load ptr, ptr %5, align 8, !tbaa !26
  %26 = load i64, ptr %25, align 8, !tbaa !20
  %27 = getelementptr inbounds i8, ptr %24, i64 %26
  %28 = call i32 @BIO_read(ptr noundef %23, ptr noundef %27, i32 noundef 256)
  store i32 %28, ptr %9, align 4, !tbaa !15
  %29 = load i32, ptr %9, align 4, !tbaa !15
  %30 = icmp slt i32 %29, 0
  br i1 %30, label %31, label %32

31:                                               ; preds = %21
  br label %51

32:                                               ; preds = %21
  %33 = load i32, ptr %9, align 4, !tbaa !15
  %34 = sext i32 %33 to i64
  %35 = sub nsw i64 9223372036854775807, %34
  %36 = load ptr, ptr %5, align 8, !tbaa !26
  %37 = load i64, ptr %36, align 8, !tbaa !20
  %38 = icmp slt i64 %35, %37
  br i1 %38, label %39, label %40

39:                                               ; preds = %32
  br label %51

40:                                               ; preds = %32
  %41 = load i32, ptr %9, align 4, !tbaa !15
  %42 = sext i32 %41 to i64
  %43 = load ptr, ptr %5, align 8, !tbaa !26
  %44 = load i64, ptr %43, align 8, !tbaa !20
  %45 = add nsw i64 %44, %42
  store i64 %45, ptr %43, align 8, !tbaa !20
  %46 = load i32, ptr %9, align 4, !tbaa !15
  %47 = icmp slt i32 %46, 256
  br i1 %47, label %48, label %50

48:                                               ; preds = %40
  %49 = load ptr, ptr %7, align 8, !tbaa !4
  store ptr %49, ptr %3, align 8
  store i32 1, ptr %10, align 4
  br label %54

50:                                               ; preds = %40
  br label %12

51:                                               ; preds = %39, %31, %20
  %52 = load ptr, ptr %7, align 8, !tbaa !4
  call void @CRYPTO_free(ptr noundef %52, ptr noundef @.str.14, i32 noundef 345)
  %53 = load ptr, ptr %5, align 8, !tbaa !26
  store i64 0, ptr %53, align 8, !tbaa !20
  store ptr null, ptr %3, align 8
  store i32 1, ptr %10, align 4
  br label %54

54:                                               ; preds = %51, %48
  call void @llvm.lifetime.end.p0(i64 4, ptr %9) #5
  call void @llvm.lifetime.end.p0(i64 8, ptr %8) #5
  call void @llvm.lifetime.end.p0(i64 8, ptr %7) #5
  call void @llvm.lifetime.end.p0(i64 4, ptr %6) #5
  %55 = load ptr, ptr %3, align 8
  ret ptr %55
}

; Function Attrs: nounwind uwtable
define internal i32 @test_d2i_CMS_decode(i32 noundef %0) #0 {
  %2 = alloca i32, align 4
  %3 = alloca ptr, align 8
  %4 = alloca ptr, align 8
  %5 = alloca ptr, align 8
  %6 = alloca ptr, align 8
  %7 = alloca i64, align 8
  %8 = alloca i32, align 4
  store i32 %0, ptr %2, align 4, !tbaa !15
  call void @llvm.lifetime.start.p0(i64 8, ptr %3) #5
  store ptr null, ptr %3, align 8, !tbaa !9
  call void @llvm.lifetime.start.p0(i64 8, ptr %4) #5
  store ptr null, ptr %4, align 8, !tbaa !13
  call void @llvm.lifetime.start.p0(i64 8, ptr %5) #5
  store ptr null, ptr %5, align 8, !tbaa !4
  call void @llvm.lifetime.start.p0(i64 8, ptr %6) #5
  store ptr null, ptr %6, align 8, !tbaa !4
  call void @llvm.lifetime.start.p0(i64 8, ptr %7) #5
  store i64 0, ptr %7, align 8, !tbaa !20
  call void @llvm.lifetime.start.p0(i64 4, ptr %8) #5
  store i32 0, ptr %8, align 4, !tbaa !15
  %9 = load ptr, ptr @derin, align 8, !tbaa !4
  %10 = call ptr @BIO_new_file(ptr noundef %9, ptr noundef @.str.19)
  store ptr %10, ptr %3, align 8, !tbaa !9
  %11 = call i32 @test_ptr(ptr noundef @.str.14, i32 noundef 359, ptr noundef @.str.51, ptr noundef %10)
  %12 = icmp ne i32 %11, 0
  br i1 %12, label %14, label %13

13:                                               ; preds = %1
  br label %44

14:                                               ; preds = %1
  %15 = load i32, ptr %2, align 4, !tbaa !15
  switch i32 %15, label %37 [
    i32 0, label %16
    i32 1, label %23
  ]

16:                                               ; preds = %14
  %17 = load ptr, ptr %3, align 8, !tbaa !9
  %18 = call ptr @d2i_CMS_bio(ptr noundef %17, ptr noundef null)
  store ptr %18, ptr %4, align 8, !tbaa !13
  %19 = call i32 @test_ptr(ptr noundef @.str.14, i32 noundef 364, ptr noundef @.str.48, ptr noundef %18)
  %20 = icmp ne i32 %19, 0
  br i1 %20, label %22, label %21

21:                                               ; preds = %16
  br label %44

22:                                               ; preds = %16
  br label %37

23:                                               ; preds = %14
  %24 = load ptr, ptr %3, align 8, !tbaa !9
  %25 = call ptr @read_all(ptr noundef %24, ptr noundef %7)
  store ptr %25, ptr %5, align 8, !tbaa !4
  %26 = call i32 @test_ptr(ptr noundef @.str.14, i32 noundef 368, ptr noundef @.str.52, ptr noundef %25)
  %27 = icmp ne i32 %26, 0
  br i1 %27, label %29, label %28

28:                                               ; preds = %23
  br label %44

29:                                               ; preds = %23
  %30 = load ptr, ptr %5, align 8, !tbaa !4
  store ptr %30, ptr %6, align 8, !tbaa !4
  %31 = load i64, ptr %7, align 8, !tbaa !20
  %32 = call ptr @d2i_CMS_ContentInfo(ptr noundef null, ptr noundef %6, i64 noundef %31)
  store ptr %32, ptr %4, align 8, !tbaa !13
  %33 = call i32 @test_ptr(ptr noundef @.str.14, i32 noundef 371, ptr noundef @.str.53, ptr noundef %32)
  %34 = icmp ne i32 %33, 0
  br i1 %34, label %36, label %35

35:                                               ; preds = %29
  br label %44

36:                                               ; preds = %29
  br label %37

37:                                               ; preds = %14, %36, %22
  %38 = call i64 @ERR_peek_error()
  %39 = trunc i64 %38 to i32
  %40 = call i32 @test_int_eq(ptr noundef @.str.14, i32 noundef 376, ptr noundef @.str.43, ptr noundef @.str.36, i32 noundef %39, i32 noundef 0)
  %41 = icmp ne i32 %40, 0
  br i1 %41, label %43, label %42

42:                                               ; preds = %37
  br label %44

43:                                               ; preds = %37
  store i32 1, ptr %8, align 4, !tbaa !15
  br label %44

44:                                               ; preds = %43, %42, %35, %28, %21, %13
  %45 = load ptr, ptr %4, align 8, !tbaa !13
  call void @CMS_ContentInfo_free(ptr noundef %45)
  %46 = load ptr, ptr %3, align 8, !tbaa !9
  %47 = call i32 @BIO_free(ptr noundef %46)
  %48 = load ptr, ptr %5, align 8, !tbaa !4
  call void @CRYPTO_free(ptr noundef %48, ptr noundef @.str.14, i32 noundef 383)
  %49 = load i32, ptr %8, align 4, !tbaa !15
  call void @llvm.lifetime.end.p0(i64 4, ptr %8) #5
  call void @llvm.lifetime.end.p0(i64 8, ptr %7) #5
  call void @llvm.lifetime.end.p0(i64 8, ptr %6) #5
  call void @llvm.lifetime.end.p0(i64 8, ptr %5) #5
  call void @llvm.lifetime.end.p0(i64 8, ptr %4) #5
  call void @llvm.lifetime.end.p0(i64 8, ptr %3) #5
  ret i32 %49
}