; Function Attrs: nounwind uwtable
define internal range(i32 0, 2) i32 @test_d2i_CMS_decode(i32 noundef %0) #1 {
  %2 = alloca ptr, align 8
  call void @llvm.lifetime.start.p0(i64 8, ptr nonnull %2) #5
  store ptr null, ptr %2, align 8, !tbaa !4
  %3 = load ptr, ptr @derin, align 8, !tbaa !4
  %4 = tail call ptr @BIO_new_file(ptr noundef %3, ptr noundef nonnull @.str.19) #5
  %5 = tail call i32 @test_ptr(ptr noundef nonnull @.str.14, i32 noundef 359, ptr noundef nonnull @.str.51, ptr noundef %4) #5
  %.not = icmp eq i32 %5, 0
  br i1 %.not, label %33, label %6

6:                                                ; preds = %1
  switch i32 %0, label %29 [
    i32 0, label %7
    i32 1, label %.preheader
  ]

7:                                                ; preds = %6
  %8 = tail call ptr @d2i_CMS_bio(ptr noundef %4, ptr noundef null) #5
  %9 = tail call i32 @test_ptr(ptr noundef nonnull @.str.14, i32 noundef 364, ptr noundef nonnull @.str.48, ptr noundef %8) #5
  %.not12 = icmp eq i32 %9, 0
  br i1 %.not12, label %33, label %29

.preheader:                                       ; preds = %6, %21
  %.016 = phi i64 [ %22, %21 ], [ 0, %6 ]
  %.017.i = phi ptr [ %11, %21 ], [ null, %6 ]
  %10 = add nuw nsw i64 %.016, 256
  %11 = tail call ptr @CRYPTO_realloc(ptr noundef %.017.i, i64 noundef %10, ptr noundef nonnull @.str.14, i32 noundef 327) #5
  %12 = icmp eq ptr %11, null
  br i1 %12, label %24, label %13

13:                                               ; preds = %.preheader
  %14 = getelementptr inbounds nuw i8, ptr %11, i64 %.016
  %15 = tail call i32 @BIO_read(ptr noundef %4, ptr noundef nonnull %14, i32 noundef 256) #5
  %16 = icmp slt i32 %15, 0
  br i1 %16, label %24, label %17

17:                                               ; preds = %13
  %18 = zext nneg i32 %15 to i64
  %19 = xor i64 %18, 9223372036854775807
  %20 = icmp samesign ult i64 %19, %.016
  br i1 %20, label %24, label %21

21:                                               ; preds = %17
  %22 = add nuw nsw i64 %.016, %18
  %23 = icmp samesign ult i32 %15, 256
  br i1 %23, label %read_all.exit, label %.preheader

24:                                               ; preds = %17, %13, %.preheader
  %.1.i = phi ptr [ %.017.i, %.preheader ], [ %11, %13 ], [ %11, %17 ]
  tail call void @CRYPTO_free(ptr noundef %.1.i, ptr noundef nonnull @.str.14, i32 noundef 345) #5
  br label %read_all.exit

read_all.exit:                                    ; preds = %21, %24
  %.117 = phi i64 [ 0, %24 ], [ %22, %21 ]
  %.0.i = phi ptr [ null, %24 ], [ %11, %21 ]
  %25 = tail call i32 @test_ptr(ptr noundef nonnull @.str.14, i32 noundef 368, ptr noundef nonnull @.str.52, ptr noundef %.0.i) #5
  %.not10 = icmp eq i32 %25, 0
  br i1 %.not10, label %33, label %26

26:                                               ; preds = %read_all.exit
  store ptr %.0.i, ptr %2, align 8, !tbaa !4
  %27 = call ptr @d2i_CMS_ContentInfo(ptr noundef null, ptr noundef nonnull %2, i64 noundef %.117) #5
  %28 = call i32 @test_ptr(ptr noundef nonnull @.str.14, i32 noundef 371, ptr noundef nonnull @.str.53, ptr noundef %27) #5
  %.not11 = icmp eq i32 %28, 0
  br i1 %.not11, label %33, label %29

29:                                               ; preds = %26, %7, %6
  %.19 = phi ptr [ null, %6 ], [ %27, %26 ], [ %8, %7 ]
  %.1 = phi ptr [ null, %6 ], [ %.0.i, %26 ], [ null, %7 ]
  %30 = call i64 @ERR_peek_error() #5
  %31 = trunc i64 %30 to i32
  %32 = call i32 @test_int_eq(ptr noundef nonnull @.str.14, i32 noundef 376, ptr noundef nonnull @.str.43, ptr noundef nonnull @.str.36, i32 noundef %31, i32 noundef 0) #5
  %.not13 = icmp ne i32 %32, 0
  %spec.select = zext i1 %.not13 to i32
  br label %33

33:                                               ; preds = %29, %26, %read_all.exit, %7, %1
  %.08 = phi ptr [ %27, %26 ], [ null, %read_all.exit ], [ %8, %7 ], [ null, %1 ], [ %.19, %29 ]
  %.07 = phi ptr [ %.0.i, %26 ], [ %.0.i, %read_all.exit ], [ null, %7 ], [ null, %1 ], [ %.1, %29 ]
  %.0 = phi i32 [ 0, %26 ], [ 0, %read_all.exit ], [ 0, %7 ], [ 0, %1 ], [ %spec.select, %29 ]
  call void @CMS_ContentInfo_free(ptr noundef %.08) #5
  %34 = call i32 @BIO_free(ptr noundef %4) #5
  call void @CRYPTO_free(ptr noundef %.07, ptr noundef nonnull @.str.14, i32 noundef 383) #5
  call void @llvm.lifetime.end.p0(i64 8, ptr nonnull %2) #5
  ret i32 %.0
}